target datalayout = "e-m:e-p270:32:32-p271:32:32-p272:64:64-i64:64-i128:128-f80:128-n8:16:32:64-S128"
target triple = "x86_64-pc-linux-gnu"

%struct.CType = type { i32, i32, i16, i16, %struct.GCRef }
%struct.GCRef = type { i64 }
%struct.CTState = type { ptr, i32, i32, ptr, ptr, ptr, %struct.CCallback, [128 x i16] }
%struct.CCallback = type { [8 x %union.FPRCBArg], [8 x i64], ptr, ptr, ptr, i32, i32, i32 }
%union.FPRCBArg = type { double }
%union.TValue = type { i64 }
%struct.MRef = type { i64 }
%struct.GCtab = type { %struct.GCRef, i8, i8, i8, i8, %struct.MRef, %struct.GCRef, %struct.GCRef, %struct.MRef, i32, i32, %struct.MRef }

; Function Attrs: alwaysinline nounwind uwtable
define internal i32 @ctype_check(ptr noundef %0, i32 noundef %1) #2 {
  %3 = alloca ptr, align 8
  %4 = alloca i32, align 4
  store ptr %0, ptr %3, align 8, !tbaa !4
  store i32 %1, ptr %4, align 4, !tbaa !11
  %5 = load i32, ptr %4, align 4, !tbaa !11
  ret i32 %5
}

; Function Attrs: alwaysinline nounwind uwtable
define internal ptr @ctype_get(ptr noundef %0, i32 noundef %1) #2 {
  %3 = alloca ptr, align 8
  %4 = alloca i32, align 4
  store ptr %0, ptr %3, align 8, !tbaa !4
  store i32 %1, ptr %4, align 4, !tbaa !11
  %5 = load ptr, ptr %3, align 8, !tbaa !4
  %6 = getelementptr inbounds nuw %struct.CTState, ptr %5, i32 0, i32 0
  %7 = load ptr, ptr %6, align 8, !tbaa !42
  %8 = load ptr, ptr %3, align 8, !tbaa !4
  %9 = load i32, ptr %4, align 4, !tbaa !11
  %10 = call i32 @ctype_check(ptr noundef %8, i32 noundef %9)
  %11 = zext i32 %10 to i64
  %12 = getelementptr inbounds nuw %struct.CType, ptr %7, i64 %11
  ret ptr %12
}

; Function Attrs: alwaysinline nounwind uwtable
define internal ptr @ctype_child(ptr noundef %0, ptr noundef %1) #2 {
  %3 = alloca ptr, align 8
  %4 = alloca ptr, align 8
  store ptr %0, ptr %3, align 8, !tbaa !4
  store ptr %1, ptr %4, align 8, !tbaa !9
  %5 = load ptr, ptr %3, align 8, !tbaa !4
  %6 = load ptr, ptr %4, align 8, !tbaa !9
  %7 = getelementptr inbounds nuw %struct.CType, ptr %6, i32 0, i32 0
  %8 = load i32, ptr %7, align 8, !tbaa !13
  %9 = and i32 %8, 65535
  %10 = call ptr @ctype_get(ptr noundef %5, i32 noundef %9)
  ret ptr %10
}

; Function Attrs: alwaysinline nounwind uwtable
define internal ptr @ctype_rawchild(ptr noundef %0, ptr noundef %1) #2 {
  %3 = alloca ptr, align 8
  %4 = alloca ptr, align 8
  store ptr %0, ptr %3, align 8, !tbaa !4
  store ptr %1, ptr %4, align 8, !tbaa !9
  br label %5

5:                                                ; preds = %9, %2
  %6 = load ptr, ptr %3, align 8, !tbaa !4
  %7 = load ptr, ptr %4, align 8, !tbaa !9
  %8 = call ptr @ctype_child(ptr noundef %6, ptr noundef %7)
  store ptr %8, ptr %4, align 8, !tbaa !9
  br label %9

9:                                                ; preds = %5
  %10 = load ptr, ptr %4, align 8, !tbaa !9
  %11 = getelementptr inbounds nuw %struct.CType, ptr %10, i32 0, i32 0
  %12 = load i32, ptr %11, align 8, !tbaa !13
  %13 = lshr i32 %12, 28
  %14 = icmp eq i32 %13, 8
  br i1 %14, label %5, label %15, !llvm.loop !64

15:                                               ; preds = %9
  %16 = load ptr, ptr %4, align 8, !tbaa !9
  ret ptr %16
}

; Function Attrs: nounwind uwtable
define internal void @cconv_array_tab(ptr noundef %0, ptr noundef %1, ptr noundef %2, ptr noundef %3, i32 noundef %4) #0 {
  %6 = alloca ptr, align 8
  %7 = alloca ptr, align 8
  %8 = alloca ptr, align 8
  %9 = alloca ptr, align 8
  %10 = alloca i32, align 4
  %11 = alloca i32, align 4
  %12 = alloca ptr, align 8
  %13 = alloca i32, align 4
  %14 = alloca i32, align 4
  %15 = alloca i32, align 4
  %16 = alloca ptr, align 8
  %17 = alloca i32, align 4
  store ptr %0, ptr %6, align 8, !tbaa !4
  store ptr %1, ptr %7, align 8, !tbaa !9
  store ptr %2, ptr %8, align 8, !tbaa !21
  store ptr %3, ptr %9, align 8, !tbaa !65
  store i32 %4, ptr %10, align 4, !tbaa !11
  call void @llvm.lifetime.start.p0(i64 4, ptr %11) #9
  call void @llvm.lifetime.start.p0(i64 8, ptr %12) #9
  %18 = load ptr, ptr %6, align 8, !tbaa !4
  %19 = load ptr, ptr %7, align 8, !tbaa !9
  %20 = call ptr @ctype_rawchild(ptr noundef %18, ptr noundef %19)
  store ptr %20, ptr %12, align 8, !tbaa !9
  call void @llvm.lifetime.start.p0(i64 4, ptr %13) #9
  %21 = load ptr, ptr %7, align 8, !tbaa !9
  %22 = getelementptr inbounds nuw %struct.CType, ptr %21, i32 0, i32 1
  %23 = load i32, ptr %22, align 4, !tbaa !18
  store i32 %23, ptr %13, align 4, !tbaa !11
  call void @llvm.lifetime.start.p0(i64 4, ptr %14) #9
  %24 = load ptr, ptr %12, align 8, !tbaa !9
  %25 = getelementptr inbounds nuw %struct.CType, ptr %24, i32 0, i32 1
  %26 = load i32, ptr %25, align 4, !tbaa !18
  store i32 %26, ptr %14, align 4, !tbaa !11
  call void @llvm.lifetime.start.p0(i64 4, ptr %15) #9
  store i32 0, ptr %15, align 4, !tbaa !11
  store i32 0, ptr %11, align 4, !tbaa !11
  br label %27

27:                                               ; preds = %81, %5
  call void @llvm.lifetime.start.p0(i64 8, ptr %16) #9
  %28 = load i32, ptr %11, align 4, !tbaa !11
  %29 = load ptr, ptr %9, align 8, !tbaa !65
  %30 = getelementptr inbounds nuw %struct.GCtab, ptr %29, i32 0, i32 9
  %31 = load i32, ptr %30, align 8, !tbaa !66
  %32 = icmp ult i32 %28, %31
  br i1 %32, label %33, label %42

33:                                               ; preds = %27
  %34 = load ptr, ptr %9, align 8, !tbaa !65
  %35 = getelementptr inbounds nuw %struct.GCtab, ptr %34, i32 0, i32 5
  %36 = getelementptr inbounds nuw %struct.MRef, ptr %35, i32 0, i32 0
  %37 = load i64, ptr %36, align 8, !tbaa !68
  %38 = inttoptr i64 %37 to ptr
  %39 = load i32, ptr %11, align 4, !tbaa !11
  %40 = sext i32 %39 to i64
  %41 = getelementptr inbounds %union.TValue, ptr %38, i64 %40
  br label %46

42:                                               ; preds = %27
  %43 = load ptr, ptr %9, align 8, !tbaa !65
  %44 = load i32, ptr %11, align 4, !tbaa !11
  %45 = call ptr @lj_tab_getinth(ptr noundef %43, i32 noundef %44)
  br label %46

46:                                               ; preds = %42, %33
  %47 = phi ptr [ %41, %33 ], [ %45, %42 ]
  store ptr %47, ptr %16, align 8, !tbaa !43
  %48 = load ptr, ptr %16, align 8, !tbaa !43
  %49 = icmp ne ptr %48, null
  br i1 %49, label %50, label %54

50:                                               ; preds = %46
  %51 = load ptr, ptr %16, align 8, !tbaa !43
  %52 = load i64, ptr %51, align 8, !tbaa !23
  %53 = icmp eq i64 %52, -1
  br i1 %53, label %54, label %59

54:                                               ; preds = %50, %46
  %55 = load i32, ptr %11, align 4, !tbaa !11
  %56 = icmp eq i32 %55, 0
  br i1 %56, label %57, label %58

57:                                               ; preds = %54
  store i32 4, ptr %17, align 4
  br label %78

58:                                               ; preds = %54
  store i32 2, ptr %17, align 4
  br label %78

59:                                               ; preds = %50
  %60 = load i32, ptr %15, align 4, !tbaa !11
  %61 = load i32, ptr %13, align 4, !tbaa !11
  %62 = icmp uge i32 %60, %61
  br i1 %62, label %63, label %66

63:                                               ; preds = %59
  %64 = load ptr, ptr %6, align 8, !tbaa !4
  %65 = load ptr, ptr %7, align 8, !tbaa !9
  call void @cconv_err_initov(ptr noundef %64, ptr noundef %65) #10
  unreachable

66:                                               ; preds = %59
  %67 = load ptr, ptr %6, align 8, !tbaa !4
  %68 = load ptr, ptr %12, align 8, !tbaa !9
  %69 = load ptr, ptr %8, align 8, !tbaa !21
  %70 = load i32, ptr %15, align 4, !tbaa !11
  %71 = zext i32 %70 to i64
  %72 = getelementptr inbounds nuw i8, ptr %69, i64 %71
  %73 = load ptr, ptr %16, align 8, !tbaa !43
  %74 = load i32, ptr %10, align 4, !tbaa !11
  call void @lj_cconv_ct_tv(ptr noundef %67, ptr noundef %68, ptr noundef %72, ptr noundef %73, i32 noundef %74)
  %75 = load i32, ptr %14, align 4, !tbaa !11
  %76 = load i32, ptr %15, align 4, !tbaa !11
  %77 = add i32 %76, %75
  store i32 %77, ptr %15, align 4, !tbaa !11
  store i32 0, ptr %17, align 4
  br label %78

78:                                               ; preds = %66, %58, %57
  call void @llvm.lifetime.end.p0(i64 8, ptr %16) #9
  %79 = load i32, ptr %17, align 4
  switch i32 %79, label %120 [
    i32 0, label %80
    i32 4, label %81
    i32 2, label %84
  ]

80:                                               ; preds = %78
  br label %81

81:                                               ; preds = %80, %78
  %82 = load i32, ptr %11, align 4, !tbaa !11
  %83 = add nsw i32 %82, 1
  store i32 %83, ptr %11, align 4, !tbaa !11
  br label %27

84:                                               ; preds = %78
  %85 = load i32, ptr %13, align 4, !tbaa !11
  %86 = icmp ne i32 %85, -1
  br i1 %86, label %87, label %119

87:                                               ; preds = %84
  %88 = load i32, ptr %15, align 4, !tbaa !11
  %89 = load i32, ptr %14, align 4, !tbaa !11
  %90 = icmp eq i32 %88, %89
  br i1 %90, label %91, label %109

91:                                               ; preds = %87
  br label %92

92:                                               ; preds = %104, %91
  %93 = load i32, ptr %15, align 4, !tbaa !11
  %94 = load i32, ptr %13, align 4, !tbaa !11
  %95 = icmp ult i32 %93, %94
  br i1 %95, label %96, label %108

96:                                               ; preds = %92
  %97 = load ptr, ptr %8, align 8, !tbaa !21
  %98 = load i32, ptr %15, align 4, !tbaa !11
  %99 = zext i32 %98 to i64
  %100 = getelementptr inbounds nuw i8, ptr %97, i64 %99
  %101 = load ptr, ptr %8, align 8, !tbaa !21
  %102 = load i32, ptr %14, align 4, !tbaa !11
  %103 = zext i32 %102 to i64
  call void @llvm.memcpy.p0.p0.i64(ptr align 1 %100, ptr align 1 %101, i64 %103, i1 false)
  br label %104

104:                                              ; preds = %96
  %105 = load i32, ptr %14, align 4, !tbaa !11
  %106 = load i32, ptr %15, align 4, !tbaa !11
  %107 = add i32 %106, %105
  store i32 %107, ptr %15, align 4, !tbaa !11
  br label %92, !llvm.loop !69

108:                                              ; preds = %92
  br label %118

109:                                              ; preds = %87
  %110 = load ptr, ptr %8, align 8, !tbaa !21
  %111 = load i32, ptr %15, align 4, !tbaa !11
  %112 = zext i32 %111 to i64
  %113 = getelementptr inbounds nuw i8, ptr %110, i64 %112
  %114 = load i32, ptr %13, align 4, !tbaa !11
  %115 = load i32, ptr %15, align 4, !tbaa !11
  %116 = sub i32 %114, %115
  %117 = zext i32 %116 to i64
  call void @llvm.memset.p0.i64(ptr align 1 %113, i8 0, i64 %117, i1 false)
  br label %118

118:                                              ; preds = %109, %108
  br label %119

119:                                              ; preds = %118, %84
  call void @llvm.lifetime.end.p0(i64 4, ptr %15) #9
  call void @llvm.lifetime.end.p0(i64 4, ptr %14) #9
  call void @llvm.lifetime.end.p0(i64 4, ptr %13) #9
  call void @llvm.lifetime.end.p0(i64 8, ptr %12) #9
  call void @llvm.lifetime.end.p0(i64 4, ptr %11) #9
  ret void

120:                                              ; preds = %78
  unreachable
}