; Function Attrs: nounwind uwtable
define internal fastcc void @cconv_array_tab(ptr noundef %0, ptr noundef %1, ptr noundef %2, ptr noundef %3, i32 noundef %4) unnamed_addr #2 {
  %6 = load ptr, ptr %0, align 8, !tbaa !4
  %.pre = load i32, ptr %1, align 8, !tbaa !17
  br label %7

7:                                                ; preds = %7, %5
  %8 = phi i32 [ %.pre, %5 ], [ %12, %7 ]
  %9 = and i32 %8, 65535
  %10 = zext nneg i32 %9 to i64
  %11 = getelementptr inbounds nuw %struct.CType, ptr %6, i64 %10
  %12 = load i32, ptr %11, align 8, !tbaa !17
  %13 = icmp slt i32 %12, -1879048192
  br i1 %13, label %7, label %ctype_rawchild.exit, !llvm.loop !44

ctype_rawchild.exit:                              ; preds = %7
  %14 = getelementptr inbounds nuw i8, ptr %1, i64 4
  %15 = load i32, ptr %14, align 4, !tbaa !22
  %16 = getelementptr inbounds nuw i8, ptr %11, i64 4
  %17 = load i32, ptr %16, align 4, !tbaa !22
  %18 = getelementptr inbounds nuw i8, ptr %3, i64 48
  %19 = getelementptr inbounds nuw i8, ptr %3, i64 16
  br label %20

20:                                               ; preds = %42, %ctype_rawchild.exit
  %indvars.iv = phi i64 [ %indvars.iv.next, %42 ], [ 0, %ctype_rawchild.exit ]
  %.042 = phi i32 [ %.151, %42 ], [ 0, %ctype_rawchild.exit ]
  %21 = load i32, ptr %18, align 8, !tbaa !61
  %22 = zext i32 %21 to i64
  %23 = icmp samesign ult i64 %indvars.iv, %22
  br i1 %23, label %24, label %28

24:                                               ; preds = %20
  %25 = load i64, ptr %19, align 8, !tbaa !63
  %26 = inttoptr i64 %25 to ptr
  %27 = getelementptr inbounds nuw %union.TValue, ptr %26, i64 %indvars.iv
  br label %31

28:                                               ; preds = %20
  %29 = trunc nuw nsw i64 %indvars.iv to i32
  %30 = tail call ptr @lj_tab_getinth(ptr noundef nonnull %3, i32 noundef %29) #9
  br label %31

31:                                               ; preds = %28, %24
  %32 = phi ptr [ %27, %24 ], [ %30, %28 ]
  %.not = icmp eq ptr %32, null
  br i1 %.not, label %41, label %33

33:                                               ; preds = %31
  %34 = load i64, ptr %32, align 8, !tbaa !23
  %35 = icmp eq i64 %34, -1
  br i1 %35, label %41, label %36

36:                                               ; preds = %33
  %.not45 = icmp ult i32 %.042, %15
  br i1 %.not45, label %.thread, label %37

37:                                               ; preds = %36
  tail call fastcc void @cconv_err_initov(ptr noundef nonnull %0, ptr noundef nonnull %1) #10
  unreachable

.thread:                                          ; preds = %36
  %38 = zext i32 %.042 to i64
  %39 = getelementptr inbounds nuw i8, ptr %2, i64 %38
  tail call void @lj_cconv_ct_tv(ptr noundef nonnull %0, ptr noundef nonnull %11, ptr noundef %39, ptr noundef nonnull %32, i32 noundef %4)
  %40 = add i32 %.042, %17
  br label %42

41:                                               ; preds = %31, %33
  %.not52 = icmp eq i64 %indvars.iv, 0
  br i1 %.not52, label %42, label %43

42:                                               ; preds = %.thread, %41
  %.151 = phi i32 [ %40, %.thread ], [ %.042, %41 ]
  %indvars.iv.next = add nuw nsw i64 %indvars.iv, 1
  br label %20

43:                                               ; preds = %41
  %.not46 = icmp eq i32 %15, -1
  br i1 %.not46, label %.loopexit, label %44

44:                                               ; preds = %43
  %45 = icmp eq i32 %.042, %17
  br i1 %45, label %.preheader, label %53

.preheader:                                       ; preds = %44
  %46 = icmp ult i32 %17, %15
  br i1 %46, label %.lr.ph, label %.loopexit

.lr.ph:                                           ; preds = %.preheader
  %47 = zext i32 %17 to i64
  br label %48

48:                                               ; preds = %.lr.ph, %48
  %.254 = phi i32 [ %17, %.lr.ph ], [ %51, %48 ]
  %49 = zext i32 %.254 to i64
  %50 = getelementptr inbounds nuw i8, ptr %2, i64 %49
  tail call void @llvm.memcpy.p0.p0.i64(ptr align 1 %50, ptr align 1 %2, i64 %47, i1 false)
  %51 = add i32 %.254, %17
  %52 = icmp ult i32 %51, %15
  br i1 %52, label %48, label %.loopexit, !llvm.loop !64

53:                                               ; preds = %44
  %54 = zext i32 %.042 to i64
  %55 = getelementptr inbounds nuw i8, ptr %2, i64 %54
  %56 = sub i32 %15, %.042
  %57 = zext i32 %56 to i64
  tail call void @llvm.memset.p0.i64(ptr align 1 %55, i8 0, i64 %57, i1 false)
  br label %.loopexit

.loopexit:                                        ; preds = %48, %.preheader, %53, %43
  ret void
}